; Function Attrs: mustprogress uwtable
define noundef i32 @_ZNK6casadi8Einstein10sp_forwardEPPKyPPyPxS4_(ptr noundef nonnull align 8 dereferenceable(312) %0, ptr noundef readonly captures(none) %1, ptr noundef readonly captures(none) %2, ptr readnone captures(none) %3, ptr readnone captures(none) %4) unnamed_addr #3 align 2 {
  %6 = load ptr, ptr %1, align 8, !tbaa !14
  %7 = load ptr, ptr %2, align 8, !tbaa !14
  %.not.i = icmp eq ptr %6, %7
  br i1 %.not.i, label %_ZNK6casadi8Einstein8eval_genIyEEiPPKT_PPS2_PxS6_.exit, label %8

8:                                                ; preds = %5
  %9 = getelementptr inbounds nuw i8, ptr %0, i64 32
  %10 = getelementptr inbounds nuw i8, ptr %0, i64 40
  %11 = load ptr, ptr %10, align 8, !tbaa !130
  %12 = load ptr, ptr %9, align 8, !tbaa !131
  %.not.i.i.i.not.i = icmp eq ptr %11, %12
  br i1 %.not.i.i.i.not.i, label %13, label %_ZNK6casadi6MXNode3depEx.exit.i

13:                                               ; preds = %8
  tail call void (ptr, ...) @_ZSt24__throw_out_of_range_fmtPKcz(ptr noundef nonnull @.str.29, i64 noundef 0, i64 noundef 0) #24
  unreachable

_ZNK6casadi6MXNode3depEx.exit.i:                  ; preds = %8
  %14 = tail call noundef nonnull align 8 dereferenceable(8) ptr @_ZNK6casadi2MX8sparsityEv(ptr noundef nonnull align 8 dereferenceable(8) %12)
  %15 = tail call noundef i64 @_ZNK6casadi8Sparsity3nnzEv(ptr noundef nonnull align 8 dereferenceable(8) %14)
  %.not.i.i.i.i.i.i = icmp eq i64 %15, 0
  %.pre10.i = load ptr, ptr %2, align 8, !tbaa !14
  br i1 %.not.i.i.i.i.i.i, label %_ZNK6casadi8Einstein8eval_genIyEEiPPKT_PPS2_PxS6_.exit, label %16

16:                                               ; preds = %_ZNK6casadi6MXNode3depEx.exit.i
  %.idx.i = shl nsw i64 %15, 3
  tail call void @llvm.memmove.p0.p0.i64(ptr align 8 %.pre10.i, ptr align 8 %6, i64 %.idx.i, i1 false)
  %.pre.i = load ptr, ptr %2, align 8, !tbaa !14
  br label %_ZNK6casadi8Einstein8eval_genIyEEiPPKT_PPS2_PxS6_.exit

_ZNK6casadi8Einstein8eval_genIyEEiPPKT_PPS2_PxS6_.exit: ; preds = %5, %_ZNK6casadi6MXNode3depEx.exit.i, %16
  %17 = phi ptr [ %.pre.i, %16 ], [ %.pre10.i, %_ZNK6casadi6MXNode3depEx.exit.i ], [ %7, %5 ]
  %18 = getelementptr inbounds nuw i8, ptr %0, i64 304
  %19 = load i64, ptr %18, align 8, !tbaa !15
  %20 = getelementptr inbounds nuw i8, ptr %0, i64 208
  %21 = getelementptr inbounds nuw i8, ptr %0, i64 232
  %22 = getelementptr inbounds nuw i8, ptr %0, i64 256
  %23 = getelementptr inbounds nuw i8, ptr %0, i64 280
  %24 = getelementptr inbounds nuw i8, ptr %1, i64 8
  %25 = load ptr, ptr %24, align 8, !tbaa !14
  %26 = getelementptr inbounds nuw i8, ptr %1, i64 16
  %27 = load ptr, ptr %26, align 8, !tbaa !14
  tail call void @_ZN6casadi13einstein_evalIyEEvxRKSt6vectorIxSaIxEES5_S5_S5_PKT_S8_PS6_(i64 noundef %19, ptr noundef nonnull align 8 dereferenceable(24) %20, ptr noundef nonnull align 8 dereferenceable(24) %21, ptr noundef nonnull align 8 dereferenceable(24) %22, ptr noundef nonnull align 8 dereferenceable(24) %23, ptr noundef %25, ptr noundef %27, ptr noundef %17)
  ret i32 0
}